#include <math.h>
#include <stdio.h>
#include <stdlib.h>
#include <string.h>

int main()
{int m,n,i,j,t,r;
 int a[8][8];
 scanf("%d,%d",&m,&n);
 for(i=0;i<m;i++){
     for(j=0;j<n;j++){
         scanf("%d",&a[i][j]);
     }
  }
  for(i=0;i<m;i++){
      for(j=0;j<n;j++){
          int s=0;
          t=a[i][j];
          for(r=0;r<n;r++){
              if(a[i][r]>t){
                  s=s+1;
              }
          }
          for(r=0;r<m;r++){
              if(a[r][j]<t){
                  s=s+1;
              }
          }
          if(s==0){
              t=1;
              printf("%d+%d",i,j);
              break;
          }
          if(t==0){
              printf("No");
          }
      }
  }
  return 0;
}

